; Function Attrs: nounwind sspstrong uwtable
define internal noundef i64 @chdir_restore(i64 noundef %0) #0 {
  %2 = inttoptr i64 %0 to ptr
  %3 = getelementptr inbounds nuw i8, ptr %2, i64 16
  %4 = load i32, ptr %3, align 8, !tbaa !80
  %.not = icmp eq i32 %4, 0
  br i1 %.not, label %dir_chdir0.exit, label %5

5:                                                ; preds = %1
  %6 = load i32, ptr getelementptr inbounds nuw (i8, ptr @chdir_lock, i64 20), align 4, !tbaa !67
  %7 = add i32 %6, -1
  store i32 %7, ptr getelementptr inbounds nuw (i8, ptr @chdir_lock, i64 20), align 4, !tbaa !67
  %8 = icmp eq i32 %7, 0
  br i1 %8, label %9, label %chdir_leave.exit

9:                                                ; preds = %5
  store i64 4, ptr @chdir_lock, align 8, !tbaa !69
  store i64 4, ptr getelementptr inbounds nuw (i8, ptr @chdir_lock, i64 8), align 8, !tbaa !70
  store i32 0, ptr getelementptr inbounds nuw (i8, ptr @chdir_lock, i64 16), align 8, !tbaa !71
  br label %chdir_leave.exit

chdir_leave.exit:                                 ; preds = %5, %9
  %10 = load i64, ptr %2, align 8, !tbaa !76
  %11 = inttoptr i64 %10 to ptr
  %12 = load i64, ptr %11, align 8, !tbaa !61, !noalias !194
  %13 = and i64 %12, 8192
  %.not.i.i.i = icmp eq i64 %13, 0
  %14 = getelementptr inbounds nuw i8, ptr %11, i64 24
  br i1 %.not.i.i.i, label %RSTRING_PTR.exit.i, label %15

15:                                               ; preds = %chdir_leave.exit
  %.sroa.2.0.copyload.i.i = load ptr, ptr %14, align 8
  br label %RSTRING_PTR.exit.i

RSTRING_PTR.exit.i:                               ; preds = %15, %chdir_leave.exit
  %.sroa.2.0.i.i = phi ptr [ %.sroa.2.0.copyload.i.i, %15 ], [ %14, %chdir_leave.exit ]
  %16 = tail call ptr @rb_nogvl(ptr noundef nonnull @nogvl_chdir, ptr noundef %.sroa.2.0.i.i, ptr noundef nonnull inttoptr (i64 -1 to ptr), ptr noundef null, i32 noundef 4) #22
  %17 = ptrtoint ptr %16 to i64
  %18 = and i64 %17, 2147483648
  %.not.i = icmp eq i64 %18, 0
  br i1 %.not.i, label %dir_chdir0.exit, label %19

19:                                               ; preds = %RSTRING_PTR.exit.i
  %20 = tail call ptr @rb_errno_ptr() #22
  %21 = load i32, ptr %20, align 4, !tbaa !58
  tail call void @rb_syserr_fail_path_in(ptr noundef nonnull @__func__.dir_chdir0, i32 noundef %21, i64 noundef %10) #26
  unreachable

dir_chdir0.exit:                                  ; preds = %RSTRING_PTR.exit.i, %1
  ret i64 4
}